; Function Attrs: mustprogress nounwind uwtable
define dso_local noundef zeroext i1 @_ZN5clang6format17isQualifierOrTypeEPKNS0_11FormatTokenERKNS_11LangOptionsE(ptr noundef %0, ptr noundef nonnull align 8 dereferenceable(841) %1) local_unnamed_addr #0 {
  %.not = icmp eq ptr %0, null
  br i1 %.not, label %_ZN5clang6formatL11isQualifierEPKNS0_11FormatTokenE.exit, label %3

3:                                                ; preds = %2
  %4 = tail call noundef zeroext i1 @_ZNK5clang6format11FormatToken10isTypeNameERKNS_11LangOptionsE(ptr noundef nonnull align 8 dereferenceable(305) %0, ptr noundef nonnull align 8 dereferenceable(841) %1) #14
  br i1 %4, label %_ZN5clang6formatL11isQualifierEPKNS0_11FormatTokenE.exit, label %5

5:                                                ; preds = %3
  %6 = getelementptr inbounds nuw i8, ptr %0, i64 16
  %7 = load i16, ptr %6, align 8
  switch i16 %7, label %8 [
    i16 77, label %_ZN5clang6formatL11isQualifierEPKNS0_11FormatTokenE.exit
    i16 81, label %_ZN5clang6formatL11isQualifierEPKNS0_11FormatTokenE.exit
    i16 110, label %_ZN5clang6formatL11isQualifierEPKNS0_11FormatTokenE.exit
    i16 103, label %_ZN5clang6formatL11isQualifierEPKNS0_11FormatTokenE.exit
    i16 156, label %_ZN5clang6formatL11isQualifierEPKNS0_11FormatTokenE.exit
    i16 161, label %_ZN5clang6formatL11isQualifierEPKNS0_11FormatTokenE.exit
    i16 155, label %_ZN5clang6formatL11isQualifierEPKNS0_11FormatTokenE.exit
    i16 135, label %_ZN5clang6formatL11isQualifierEPKNS0_11FormatTokenE.exit
  ]

8:                                                ; preds = %5
  br label %_ZN5clang6formatL11isQualifierEPKNS0_11FormatTokenE.exit

_ZN5clang6formatL11isQualifierEPKNS0_11FormatTokenE.exit: ; preds = %5, %5, %5, %5, %5, %5, %5, %5, %8, %3, %2
  %9 = phi i1 [ false, %2 ], [ true, %5 ], [ true, %3 ], [ false, %8 ], [ true, %5 ], [ true, %5 ], [ true, %5 ], [ true, %5 ], [ true, %5 ], [ true, %5 ], [ true, %5 ]
  ret i1 %9
}